; Function Attrs: inlinehint nounwind uwtable
define internal fastcc zeroext i1 @lxb_html_tree_insertion_mode_in_body_iframe(ptr noundef initializes((81, 82)) %0, ptr noundef %1) unnamed_addr #3 {
  %3 = getelementptr inbounds nuw i8, ptr %0, i64 81
  store i8 0, ptr %3, align 1, !tbaa !25
  %4 = tail call ptr @lxb_html_tree_generic_rawtext_parsing(ptr noundef %0, ptr noundef %1) #6
  %5 = icmp eq ptr %4, null
  br i1 %5, label %6, label %9

6:                                                ; preds = %2
  %7 = getelementptr inbounds nuw i8, ptr %0, i64 112
  store i32 2, ptr %7, align 8, !tbaa !22
  %8 = tail call zeroext i1 @lxb_html_tree_process_abort(ptr noundef nonnull %0) #6
  br label %9

9:                                                ; preds = %2, %6
  %.0 = phi i1 [ %8, %6 ], [ true, %2 ]
  ret i1 %.0
}